; Function Attrs: nounwind uwtable
define ptr @l_Lean_Widget_TaggedText_mapM___rarg___lambda__2(ptr noundef %0, ptr noundef %1, ptr noundef %2) #1 {
  %4 = getelementptr inbounds nuw i8, ptr %0, i64 8
  %5 = load ptr, ptr %4, align 8, !tbaa !4
  %6 = ptrtoint ptr %5 to i64
  %7 = and i64 %6, 1
  %.not = icmp eq i64 %7, 0
  br i1 %.not, label %8, label %lean_inc.exit14

8:                                                ; preds = %3
  %.val.i = load i32, ptr %5, align 4, !tbaa !9
  %9 = icmp sgt i32 %.val.i, 0
  br i1 %9, label %10, label %12, !prof !12

10:                                               ; preds = %8
  %11 = add nuw i32 %.val.i, 1
  store i32 %11, ptr %5, align 4, !tbaa !9
  br label %lean_inc.exit14

12:                                               ; preds = %8
  %.not.i17 = icmp eq i32 %.val.i, 0
  br i1 %.not.i17, label %lean_inc.exit14, label %13

13:                                               ; preds = %12
  tail call void @lean_inc_ref_cold(ptr noundef nonnull %5) #5
  br label %lean_inc.exit14

lean_inc.exit14:                                  ; preds = %13, %12, %10, %3
  %14 = ptrtoint ptr %0 to i64
  %15 = and i64 %14, 1
  %.not21 = icmp eq i64 %15, 0
  br i1 %.not21, label %16, label %lean_dec.exit13

16:                                               ; preds = %lean_inc.exit14
  %17 = load i32, ptr %0, align 4, !tbaa !9
  %18 = icmp sgt i32 %17, 1
  br i1 %18, label %19, label %21, !prof !12

19:                                               ; preds = %16
  %20 = add nsw i32 %17, -1
  store i32 %20, ptr %0, align 4, !tbaa !9
  br label %lean_dec.exit13

21:                                               ; preds = %16
  %.not.i = icmp eq i32 %17, 0
  br i1 %.not.i, label %lean_dec.exit13, label %22

22:                                               ; preds = %21
  tail call void @lean_dec_ref_cold(ptr noundef nonnull %0) #5
  br label %lean_dec.exit13

lean_dec.exit13:                                  ; preds = %22, %21, %19, %lean_inc.exit14
  %23 = getelementptr inbounds nuw i8, ptr %5, i64 16
  %24 = load ptr, ptr %23, align 8, !tbaa !4
  %25 = ptrtoint ptr %24 to i64
  %26 = and i64 %25, 1
  %.not22 = icmp eq i64 %26, 0
  br i1 %.not22, label %27, label %lean_inc.exit

27:                                               ; preds = %lean_dec.exit13
  %.val.i18 = load i32, ptr %24, align 4, !tbaa !9
  %28 = icmp sgt i32 %.val.i18, 0
  br i1 %28, label %29, label %31, !prof !12

29:                                               ; preds = %27
  %30 = add nuw i32 %.val.i18, 1
  store i32 %30, ptr %24, align 4, !tbaa !9
  br label %lean_inc.exit

31:                                               ; preds = %27
  %.not.i19 = icmp eq i32 %.val.i18, 0
  br i1 %.not.i19, label %lean_inc.exit, label %32

32:                                               ; preds = %31
  tail call void @lean_inc_ref_cold(ptr noundef nonnull %24) #5
  br label %lean_inc.exit

lean_inc.exit:                                    ; preds = %32, %31, %29, %lean_dec.exit13
  br i1 %.not, label %33, label %lean_dec.exit

33:                                               ; preds = %lean_inc.exit
  %34 = load i32, ptr %5, align 4, !tbaa !9
  %35 = icmp sgt i32 %34, 1
  br i1 %35, label %36, label %38, !prof !12

36:                                               ; preds = %33
  %37 = add nsw i32 %34, -1
  store i32 %37, ptr %5, align 4, !tbaa !9
  br label %lean_dec.exit

38:                                               ; preds = %33
  %.not.i15 = icmp eq i32 %34, 0
  br i1 %.not.i15, label %lean_dec.exit, label %39

39:                                               ; preds = %38
  tail call void @lean_dec_ref_cold(ptr noundef nonnull %5) #5
  br label %lean_dec.exit

lean_dec.exit:                                    ; preds = %39, %38, %36, %lean_inc.exit
  tail call void @lean_inc_heartbeat() #5
  %40 = tail call noalias ptr @mi_malloc_small(i64 noundef 24) #5
  %41 = icmp eq ptr %40, null
  br i1 %41, label %42, label %lean_alloc_ctor.exit

42:                                               ; preds = %lean_dec.exit
  tail call void @lean_internal_panic_out_of_memory() #6
  unreachable

lean_alloc_ctor.exit:                             ; preds = %lean_dec.exit
  %43 = getelementptr inbounds nuw i8, ptr %40, i64 4
  store i32 1, ptr %40, align 4, !tbaa !9
  store i32 33685528, ptr %43, align 4
  %44 = getelementptr inbounds nuw i8, ptr %40, i64 8
  store ptr %1, ptr %44, align 8, !tbaa !4
  %45 = getelementptr inbounds nuw i8, ptr %40, i64 16
  store ptr %2, ptr %45, align 8, !tbaa !4
  %46 = tail call ptr @lean_apply_2(ptr noundef %24, ptr noundef nonnull inttoptr (i64 1 to ptr), ptr noundef nonnull %40) #5
  ret ptr %46
}